target datalayout = "e-m:e-p270:32:32-p271:32:32-p272:64:64-i64:64-i128:128-f80:128-n8:16:32:64-S128"
target triple = "x86_64-pc-linux-gnu"

%struct.SDL_VideoDevice = type { ptr, ptr, ptr, ptr, ptr, ptr, ptr, ptr, ptr, ptr, ptr, ptr, ptr, ptr, ptr, ptr, ptr, ptr, ptr, ptr, ptr, ptr, ptr, ptr, ptr, ptr, ptr, ptr, ptr, ptr, ptr, ptr, ptr, ptr, ptr, ptr, ptr, ptr, ptr, ptr, ptr, ptr, ptr, ptr, ptr, ptr, ptr, ptr, ptr, ptr, ptr, ptr, ptr, ptr, ptr, ptr, ptr, ptr, ptr, ptr, ptr, ptr, ptr, ptr, ptr, ptr, ptr, ptr, ptr, ptr, ptr, ptr, ptr, ptr, ptr, ptr, ptr, ptr, ptr, ptr, ptr, ptr, ptr, ptr, ptr, ptr, ptr, ptr, ptr, ptr, ptr, ptr, ptr, ptr, ptr, ptr, ptr, i64, i8, i8, i8, ptr, i32, ptr, %struct.SDL_Rect, ptr, ptr, i32, ptr, ptr, ptr, ptr, i64, ptr, i8, i32, i32, %struct.anon, ptr, ptr, ptr, ptr, ptr, ptr, %struct.SDL_AtomicInt, %struct.SDL_AtomicInt, i8, %struct.anon.0, ptr, ptr, ptr, ptr, ptr }
%struct.SDL_Rect = type { i32, i32, i32, i32 }
%struct.anon = type { i32, i32, i32, i32, i32, i32, i32, i32, i32, i32, i32, i32, i32, i32, i32, i32, i32, i32, i32, i32, i32, i32, i32, i32, i32, i32, i32, i32, i32, [256 x i8], ptr }
%struct.SDL_AtomicInt = type { i32 }
%struct.anon.0 = type { ptr, ptr, i32, [256 x i8], ptr }
%struct.VkHeadlessSurfaceCreateInfoEXT = type { i32, ptr, i32 }

@.str.10 = private unnamed_addr constant [21 x i8] c"Vulkan is not loaded\00", align 1
@.str.11 = private unnamed_addr constant [27 x i8] c"vkCreateHeadlessSurfaceEXT\00", align 1
@.str.12 = private unnamed_addr constant [73 x i8] c"VK_EXT_headless_surface extension is not enabled in the Vulkan instance.\00", align 1
@.str.13 = private unnamed_addr constant [38 x i8] c"vkCreateHeadlessSurfaceEXT failed: %s\00", align 1

; Function Attrs: nounwind uwtable
define hidden zeroext i1 @OFFSCREEN_Vulkan_CreateSurface(ptr noundef %0, ptr noundef %1, ptr noundef %2, ptr noundef %3, ptr noundef %4) #0 {
  %6 = alloca i1, align 1
  %7 = alloca ptr, align 8
  %8 = alloca ptr, align 8
  %9 = alloca ptr, align 8
  %10 = alloca ptr, align 8
  %11 = alloca ptr, align 8
  %12 = alloca ptr, align 8
  %13 = alloca ptr, align 8
  %14 = alloca %struct.VkHeadlessSurfaceCreateInfoEXT, align 8
  %15 = alloca i32, align 4
  %16 = alloca i32, align 4
  store ptr %0, ptr %7, align 8
  store ptr %1, ptr %8, align 8
  store ptr %2, ptr %9, align 8
  store ptr %3, ptr %10, align 8
  store ptr %4, ptr %11, align 8
  %17 = load ptr, ptr %11, align 8
  store ptr null, ptr %17, align 8
  %18 = load ptr, ptr %7, align 8
  %19 = getelementptr inbounds nuw %struct.SDL_VideoDevice, ptr %18, i32 0, i32 127
  %20 = getelementptr inbounds nuw %struct.anon.0, ptr %19, i32 0, i32 4
  %21 = load ptr, ptr %20, align 8
  %22 = icmp ne ptr %21, null
  br i1 %22, label %25, label %23

23:                                               ; preds = %5
  %24 = call zeroext i1 (ptr, ...) @SDL_SetError_REAL(ptr noundef @.str.10)
  store i1 %24, ptr %6, align 1
  br label %54

25:                                               ; preds = %5
  call void @llvm.lifetime.start.p0(i64 8, ptr %12) #4
  %26 = load ptr, ptr %7, align 8
  %27 = getelementptr inbounds nuw %struct.SDL_VideoDevice, ptr %26, i32 0, i32 127
  %28 = getelementptr inbounds nuw %struct.anon.0, ptr %27, i32 0, i32 0
  %29 = load ptr, ptr %28, align 8
  store ptr %29, ptr %12, align 8
  call void @llvm.lifetime.start.p0(i64 8, ptr %13) #4
  %30 = load ptr, ptr %12, align 8
  %31 = load ptr, ptr %9, align 8
  %32 = call ptr %30(ptr noundef %31, ptr noundef @.str.11)
  store ptr %32, ptr %13, align 8
  call void @llvm.lifetime.start.p0(i64 24, ptr %14) #4
  call void @llvm.lifetime.start.p0(i64 4, ptr %15) #4
  %33 = load ptr, ptr %13, align 8
  %34 = icmp ne ptr %33, null
  br i1 %34, label %37, label %35

35:                                               ; preds = %25
  %36 = call zeroext i1 (ptr, ...) @SDL_SetError_REAL(ptr noundef @.str.12)
  store i1 %36, ptr %6, align 1
  store i32 1, ptr %16, align 4
  br label %53

37:                                               ; preds = %25
  call void @llvm.memset.p0.i64(ptr align 8 %14, i8 0, i64 24, i1 false)
  %38 = getelementptr inbounds nuw %struct.VkHeadlessSurfaceCreateInfoEXT, ptr %14, i32 0, i32 0
  store i32 1000256000, ptr %38, align 8
  %39 = getelementptr inbounds nuw %struct.VkHeadlessSurfaceCreateInfoEXT, ptr %14, i32 0, i32 1
  store ptr null, ptr %39, align 8
  %40 = getelementptr inbounds nuw %struct.VkHeadlessSurfaceCreateInfoEXT, ptr %14, i32 0, i32 2
  store i32 0, ptr %40, align 8
  %41 = load ptr, ptr %13, align 8
  %42 = load ptr, ptr %9, align 8
  %43 = load ptr, ptr %10, align 8
  %44 = load ptr, ptr %11, align 8
  %45 = call i32 %41(ptr noundef %42, ptr noundef %14, ptr noundef %43, ptr noundef %44)
  store i32 %45, ptr %15, align 4
  %46 = load i32, ptr %15, align 4
  %47 = icmp ne i32 %46, 0
  br i1 %47, label %48, label %52

48:                                               ; preds = %37
  %49 = load i32, ptr %15, align 4
  %50 = call ptr @SDL_Vulkan_GetResultString(i32 noundef %49)
  %51 = call zeroext i1 (ptr, ...) @SDL_SetError_REAL(ptr noundef @.str.13, ptr noundef %50)
  store i1 %51, ptr %6, align 1
  store i32 1, ptr %16, align 4
  br label %53

52:                                               ; preds = %37
  store i1 true, ptr %6, align 1
  store i32 1, ptr %16, align 4
  br label %53

53:                                               ; preds = %52, %48, %35
  call void @llvm.lifetime.end.p0(i64 4, ptr %15) #4
  call void @llvm.lifetime.end.p0(i64 24, ptr %14) #4
  call void @llvm.lifetime.end.p0(i64 8, ptr %13) #4
  call void @llvm.lifetime.end.p0(i64 8, ptr %12) #4
  br label %54

54:                                               ; preds = %53, %23
  %55 = load i1, ptr %6, align 1
  ret i1 %55
}