; Function Attrs: nounwind uwtable
define hidden zeroext i1 @OFFSCREEN_Vulkan_CreateSurface(ptr noundef readonly captures(none) %0, ptr noundef readnone captures(none) %1, ptr noundef %2, ptr noundef %3, ptr noundef initializes((0, 8)) %4) local_unnamed_addr #0 {
  %6 = alloca %struct.VkHeadlessSurfaceCreateInfoEXT, align 8
  store ptr null, ptr %4, align 8
  %7 = getelementptr inbounds nuw i8, ptr %0, i64 1648
  %8 = load ptr, ptr %7, align 8
  %.not = icmp eq ptr %8, null
  br i1 %.not, label %9, label %11

9:                                                ; preds = %5
  %10 = tail call zeroext i1 (ptr, ...) @SDL_SetError_REAL(ptr noundef nonnull @.str.10) #4
  br label %24

11:                                               ; preds = %5
  %12 = getelementptr inbounds nuw i8, ptr %0, i64 1368
  %13 = load ptr, ptr %12, align 8
  %14 = tail call ptr %13(ptr noundef %2, ptr noundef nonnull @.str.11) #4
  call void @llvm.lifetime.start.p0(i64 24, ptr nonnull %6) #4
  %.not14 = icmp eq ptr %14, null
  br i1 %.not14, label %15, label %17

15:                                               ; preds = %11
  %16 = tail call zeroext i1 (ptr, ...) @SDL_SetError_REAL(ptr noundef nonnull @.str.12) #4
  br label %23

17:                                               ; preds = %11
  call void @llvm.memset.p0.i64(ptr noundef nonnull align 8 dereferenceable(24) %6, i8 0, i64 24, i1 false)
  store i32 1000256000, ptr %6, align 8
  %18 = getelementptr inbounds nuw i8, ptr %6, i64 16
  store i32 0, ptr %18, align 8
  %19 = call i32 %14(ptr noundef %2, ptr noundef nonnull %6, ptr noundef %3, ptr noundef nonnull %4) #4
  %.not15 = icmp eq i32 %19, 0
  br i1 %.not15, label %23, label %20

20:                                               ; preds = %17
  %21 = call ptr @SDL_Vulkan_GetResultString(i32 noundef %19) #4
  %22 = call zeroext i1 (ptr, ...) @SDL_SetError_REAL(ptr noundef nonnull @.str.13, ptr noundef %21) #4
  br label %23

23:                                               ; preds = %17, %20, %15
  %.1 = phi i1 [ %22, %20 ], [ %16, %15 ], [ true, %17 ]
  call void @llvm.lifetime.end.p0(i64 24, ptr nonnull %6) #4
  br label %24

24:                                               ; preds = %23, %9
  %.0 = phi i1 [ %.1, %23 ], [ %10, %9 ]
  ret i1 %.0
}